ccopy_reg
_reconstructor
p0
(csklearn.preprocessing.data
StandardScaler
p1
c__builtin__
object
p2
Ntp3
Rp4
(dp5
S'std_'
p6
cnumpy.core.multiarray
scalar
p7
(cnumpy
dtype
p8
(S'f8'
p9
I0
I1
tp10
Rp11
(I3
S'<'
p12
NNNI-1
I-1
I0
tp13
bS"\xac'\xfa\x9d&\x9c6@"
p14
tp15
Rp16
sS'copy'
p17
I01
sS'with_mean'
p18
I01
sS'with_std'
p19
I01
sS'mean_'
p20
g7
(g11
S']t\xd1E\x97JL@'
p21
tp22
Rp23
sb.