(lp0
Vcat_art
p1
aVcat_business
p2
aVcat_computer
p3
aVcat_corporate_training
p4
aVcat_elementary_education
p5
aVcat_english
p6
aVcat_history
p7
aVcat_homeschool
p8
aVcat_language
p9
aVcat_math
p10
aVcat_music
p11
aVcat_science
p12
aVcat_special_needs
p13
aVcat_sports_recreation
p14
aVcat_test_preparation
p15
a.