(lp0
VACT English
p1
aVACT Math
p2
aVACT Reading
p3
aVACT Science
p4
aVADD/ADHD
p5
aVAccounting
p6
aVAdobe Photoshop
p7
aVAlgebra 1
p8
aVAlgebra 2
p9
aVAmerican History
p10
aVAnatomy
p11
aVAnthropology
p12
aVArt History
p13
aVAspergers
p14
aVAutism
p15
aVBasketball
p16
aVBible Studies
p17
aVBiochemistry
p18
aVBiology
p19
aVBusiness
p20
aVCalculus
p21
aVCareer Development
p22
aVChemistry
p23
aVChinese
p24
aVClassics
p25
aVCollege Counseling
p26
aVDifferential Equations
p27
aVDiscrete Math
p28
aVDrawing
p29
aVDyslexia
p30
aVESL/ESOL
p31
aVEar Training
p32
aVEconomics
p33
aVElementary (K-6th)
p34
aVElementary Math
p35
aVElementary Science
p36
aVEnglish
p37
aVEuropean History
p38
aVFilm
p39
aVFitness
p40
aVFrench
p41
aVGED
p42
aVGMAT
p43
aVGRE
p44
aVGeneral Computer
p45
aVGeneral Music
p46
aVGenetics
p47
aVGeography
p48
aVGeometry
p49
aVGovernment & Politics
p50
aVGrammar
p51
aVHandwriting
p52
aVLinear Algebra
p53
aVLiterature
p54
aVLogic
p55
aVMacintosh
p56
aVMicrobiology
p57
aVMicrosoft Excel
p58
aVMicrosoft Outlook
p59
aVMicrosoft PowerPoint
p60
aVMicrosoft Windows
p61
aVMicrosoft Word
p62
aVMusic History
p63
aVMusic Theory
p64
aVOrganic Chemistry
p65
aVPSAT
p66
aVPainting
p67
aVPhilosophy
p68
aVPhonics
p69
aVPhotography
p70
aVPhysical Science
p71
aVPhysics
p72
aVPhysiology
p73
aVPiano
p74
aVPrealgebra
p75
aVPrecalculus
p76
aVProbability
p77
aVProofreading
p78
aVPsychology
p79
aVPublic Speaking
p80
aVReading
p81
aVRegents
p82
aVReligion
p83
aVSAT Math
p84
aVSAT Reading
p85
aVSAT Writing
p86
aVSSAT
p87
aVSocial Studies
p88
aVSociology
p89
aVSpanish
p90
aVSpecial Needs
p91
aVSpelling
p92
aVStatistics
p93
aVStudy Skills
p94
aVTOEFL
p95
aVTheatre
p96
aVTrigonometry
p97
aVVocabulary
p98
aVWorld History
p99
aVWriting
p100
a.