(lp0
Vqual_ACT English
p1
aVqual_ACT Math
p2
aVqual_ACT Reading
p3
aVqual_ACT Science
p4
aVqual_ADD/ADHD
p5
aVqual_Accounting
p6
aVqual_Adobe Photoshop
p7
aVqual_Algebra 1
p8
aVqual_Algebra 2
p9
aVqual_American History
p10
aVqual_Anatomy
p11
aVqual_Anthropology
p12
aVqual_Art History
p13
aVqual_Aspergers
p14
aVqual_Autism
p15
aVqual_Basketball
p16
aVqual_Bible Studies
p17
aVqual_Biochemistry
p18
aVqual_Biology
p19
aVqual_Business
p20
aVqual_Calculus
p21
aVqual_Career Development
p22
aVqual_Chemistry
p23
aVqual_Chinese
p24
aVqual_Classics
p25
aVqual_College Counseling
p26
aVqual_Differential Equations
p27
aVqual_Discrete Math
p28
aVqual_Drawing
p29
aVqual_Dyslexia
p30
aVqual_ESL/ESOL
p31
aVqual_Ear Training
p32
aVqual_Economics
p33
aVqual_Elementary (K-6th)
p34
aVqual_Elementary Math
p35
aVqual_Elementary Science
p36
aVqual_English
p37
aVqual_European History
p38
aVqual_Film
p39
aVqual_Fitness
p40
aVqual_French
p41
aVqual_GED
p42
aVqual_GMAT
p43
aVqual_GRE
p44
aVqual_General Computer
p45
aVqual_General Music
p46
aVqual_Genetics
p47
aVqual_Geography
p48
aVqual_Geometry
p49
aVqual_Government & Politics
p50
aVqual_Grammar
p51
aVqual_Handwriting
p52
aVqual_Linear Algebra
p53
aVqual_Literature
p54
aVqual_Logic
p55
aVqual_Macintosh
p56
aVqual_Microbiology
p57
aVqual_Microsoft Excel
p58
aVqual_Microsoft Outlook
p59
aVqual_Microsoft PowerPoint
p60
aVqual_Microsoft Windows
p61
aVqual_Microsoft Word
p62
aVqual_Music History
p63
aVqual_Music Theory
p64
aVqual_Organic Chemistry
p65
aVqual_PSAT
p66
aVqual_Painting
p67
aVqual_Philosophy
p68
aVqual_Phonics
p69
aVqual_Photography
p70
aVqual_Physical Science
p71
aVqual_Physics
p72
aVqual_Physiology
p73
aVqual_Piano
p74
aVqual_Prealgebra
p75
aVqual_Precalculus
p76
aVqual_Probability
p77
aVqual_Proofreading
p78
aVqual_Psychology
p79
aVqual_Public Speaking
p80
aVqual_Reading
p81
aVqual_Regents
p82
aVqual_Religion
p83
aVqual_SAT Math
p84
aVqual_SAT Reading
p85
aVqual_SAT Writing
p86
aVqual_SSAT
p87
aVqual_Social Studies
p88
aVqual_Sociology
p89
aVqual_Spanish
p90
aVqual_Special Needs
p91
aVqual_Spelling
p92
aVqual_Statistics
p93
aVqual_Study Skills
p94
aVqual_TOEFL
p95
aVqual_Theatre
p96
aVqual_Trigonometry
p97
aVqual_Vocabulary
p98
aVqual_World History
p99
aVqual_Writing
p100
a.